(dp0
S's30-d43'
p1
I19807
sS's30-d40'
p2
I4911
sS's30-d41'
p3
I19163
sS's22-d55'
p4
I1530
sS's25-d52'
p5
I5676
sS's25-d51'
p6
I3409
sS's28-d39'
p7
I22908
sS's35-d55'
p8
I6758
sS's24-d41'
p9
I17753
sS's24-d40'
p10
I6322
sS's24-d48'
p11
I2397
sS's21-d29'
p12
I1881
sS's21-d39'
p13
I3774
sS's22-d29'
p14
I3253
sS's33-d27'
p15
I20003
sS's22-d46'
p16
I14844
sS's32-d70'
p17
I7357
sS's13-d52'
p18
I2767
sS's22-d48'
p19
I2467
sS's13-d54'
p20
I8199
sS's37-d39'
p21
I9169
sS's25-d23'
p22
I3808
sS's27-d70'
p23
I8218
sS's36-d50'
p24
I5219
sS's26-d70'
p25
I5847
sS's22-d53'
p26
I6013
sS's21-d23'
p27
I3452
sS's21-d21'
p28
I4450
sS's24-d53'
p29
I5237
sS's21-d28'
p30
I3693
sS's32-d69'
p31
I12409
sS's35-d48'
p32
I7628
sS's31-d28'
p33
I5841
sS's31-d25'
p34
I2650
sS's22-d25'
p35
I1621
sS's29-d42'
p36
I22198
sS's35-d40'
p37
I13864
sS's23-d31'
p38
I3216
sS's17-d48'
p39
I2273
sS's36-d42'
p40
I18133
sS's34-d34'
p41
I17675
sS's35-d41'
p42
I27306
sS's34-d41'
p43
I15419
sS's37-d46'
p44
I13677
sS's21-d53'
p45
I4683
sS's30-d26'
p46
I17130
sS's24-d28'
p47
I7230
sS's21-d55'
p48
I2133
sS's14-d35'
p49
I2421
sS's30-d29'
p50
I6115
sS's36-d70'
p51
I7055
sS's23-d51'
p52
I6830
sS's31-d31'
p53
I6273
sS's23-d54'
p54
I9474
sS's24-d34'
p55
I5430
sS's17-d55'
p56
I2335
sS's27-d50'
p57
I2430
sS's17-d53'
p58
I7031
sS's22-d43'
p59
I3315
sS's25-d69'
p60
I14351
sS's27-d34'
p61
I1772
sS's23-d46'
p62
I10819
sS's21-d42'
p63
I6090
sS's21-d43'
p64
I4033
sS's23-d42'
p65
I12416
sS's21-d45'
p66
I2866
sS's14-d26'
p67
I12483
sS's14-d27'
p68
I6134
sS's21-d40'
p69
I3238
sS's26-d26'
p70
I41240
sS's26-d23'
p71
I2842
sS's17-d42'
p72
I15601
sS's34-d28'
p73
I11816
sS's23-d45'
p74
I4184
sS's29-d52'
p75
I5871
sS's15-d70'
p76
I8315
sS's27-d45'
p77
I4757
sS's29-d50'
p78
I2847
sS's27-d29'
p79
I8024
sS's21-d35'
p80
I1875
sS's27-d21'
p81
I4408
sS's37-d25'
p82
I1436
sS's37-d21'
p83
I11130
sS's23-d34'
p84
I5231
sS's23-d39'
p85
I5444
sS's37-d29'
p86
I3012
sS's27-d54'
p87
I10969
sS's14-d51'
p88
I8323
sS's28-d46'
p89
I11162
sS's23-d21'
p90
I4866
sS's13-d48'
p91
I3228
sS's32-d27'
p92
I22541
sS's13-d21'
p93
I2955
sS's13-d25'
p94
I2951
sS's13-d28'
p95
I5629
sS's14-d46'
p96
I9249
sS's14-d43'
p97
I4667
sS's22-d34'
p98
I2401
sS's21-d50'
p99
I1607
sS's24-d23'
p100
I5735
sS's29-d31'
p101
I3164
sS's17-d69'
p102
I12454
sS's15-d26'
p103
I33264
sS's29-d39'
p104
I9630
sS's32-d55'
p105
I5689
sS's32-d52'
p106
I5508
sS's13-d31'
p107
I5093
sS's36-d31'
p108
I7071
sS's36-d43'
p109
I26924
sS's33-d45'
p110
I7698
sS's22-d26'
p111
I9365
sS's28-d27'
p112
I17235
sS's28-d25'
p113
I3220
sS's30-d53'
p114
I13379
sS's30-d52'
p115
I7362
sS's33-d54'
p116
I10898
sS's22-d35'
p117
I2555
sS's15-d35'
p118
I6472
sS's33-d50'
p119
I3466
sS's13-d40'
p120
I3347
sS's13-d45'
p121
I4354
sS's36-d23'
p122
I19412
sS's25-d35'
p123
I3900
sS's28-d51'
p124
I19725
sS's26-d69'
p125
I20978
sS's36-d27'
p126
I4390
sS's34-d69'
p127
I12952
s.